target datalayout = "e-m:e-p270:32:32-p271:32:32-p272:64:64-i64:64-i128:128-f80:128-n8:16:32:64-S128"
target triple = "x86_64-pc-linux-gnu"

@stderr = external global ptr, align 8
@.str.10 = private unnamed_addr constant [55 x i8] c"\0ASUNDIALS_ERROR: %s() failed - returned NULL pointer\0A\0A\00", align 1
@.str.11 = private unnamed_addr constant [48 x i8] c"\0ASUNDIALS_ERROR: %s() failed with retval = %d\0A\0A\00", align 1
@.str.12 = private unnamed_addr constant [53 x i8] c"\0AMEMORY_ERROR: %s() failed - returned NULL pointer\0A\0A\00", align 1
@.str.44 = private unnamed_addr constant [18 x i8] c"CVodeGetWorkSpace\00", align 1
@.str.45 = private unnamed_addr constant [17 x i8] c"CVodeGetNumSteps\00", align 1
@.str.46 = private unnamed_addr constant [20 x i8] c"CVodeGetNumRhsEvals\00", align 1
@.str.47 = private unnamed_addr constant [25 x i8] c"CVodeGetNumLinSolvSetups\00", align 1
@.str.48 = private unnamed_addr constant [24 x i8] c"CVodeGetNumErrTestFails\00", align 1
@.str.49 = private unnamed_addr constant [27 x i8] c"CVodeGetNumNonlinSolvIters\00", align 1
@.str.50 = private unnamed_addr constant [31 x i8] c"CVodeGetNumNonlinSolvConvFails\00", align 1
@.str.51 = private unnamed_addr constant [35 x i8] c"\0A Final statistics for this run:\0A\0A\00", align 1
@.str.52 = private unnamed_addr constant [51 x i8] c" CVode real workspace length              = %4ld \0A\00", align 1
@.str.53 = private unnamed_addr constant [51 x i8] c" CVode integer workspace length           = %4ld \0A\00", align 1
@.str.54 = private unnamed_addr constant [51 x i8] c" Number of steps                          = %4ld \0A\00", align 1
@.str.55 = private unnamed_addr constant [51 x i8] c" Number of f-s                            = %4ld \0A\00", align 1
@.str.56 = private unnamed_addr constant [51 x i8] c" Number of setups                         = %4ld \0A\00", align 1
@.str.57 = private unnamed_addr constant [51 x i8] c" Number of nonlinear iterations           = %4ld \0A\00", align 1
@.str.58 = private unnamed_addr constant [51 x i8] c" Number of nonlinear convergence failures = %4ld \0A\00", align 1
@.str.59 = private unnamed_addr constant [52 x i8] c" Number of error test failures            = %4ld \0A\0A\00", align 1
@.str.60 = private unnamed_addr constant [20 x i8] c"CVodeGetNumJacEvals\00", align 1
@.str.61 = private unnamed_addr constant [23 x i8] c"CVodeGetNumLinRhsEvals\00", align 1
@.str.62 = private unnamed_addr constant [21 x i8] c"CVodeGetLinWorkSpace\00", align 1
@.str.63 = private unnamed_addr constant [21 x i8] c"CVDiagGetNumRhsEvals\00", align 1
@.str.64 = private unnamed_addr constant [19 x i8] c"CVDiagGetWorkSpace\00", align 1
@.str.65 = private unnamed_addr constant [51 x i8] c" Linear solver real workspace length      = %4ld \0A\00", align 1
@.str.66 = private unnamed_addr constant [51 x i8] c" Linear solver integer workspace length   = %4ld \0A\00", align 1
@.str.67 = private unnamed_addr constant [51 x i8] c" Number of Jacobian evaluations           = %4ld \0A\00", align 1
@.str.68 = private unnamed_addr constant [52 x i8] c" Number of f evals. in linear solver      = %4ld \0A\0A\00", align 1
@.str.69 = private unnamed_addr constant [24 x i8] c" Error overrun = %.3f \0A\00", align 1

; Function Attrs: nounwind uwtable
define internal i32 @check_retval(ptr noundef %0, ptr noundef %1, i32 noundef %2) #0 {
  %4 = alloca i32, align 4
  %5 = alloca ptr, align 8
  %6 = alloca ptr, align 8
  %7 = alloca i32, align 4
  %8 = alloca ptr, align 8
  %9 = alloca i32, align 4
  store ptr %0, ptr %5, align 8, !tbaa !19
  store ptr %1, ptr %6, align 8, !tbaa !29
  store i32 %2, ptr %7, align 4, !tbaa !4
  call void @llvm.lifetime.start.p0(i64 8, ptr %8) #5
  %10 = load i32, ptr %7, align 4, !tbaa !4
  %11 = icmp eq i32 %10, 0
  br i1 %11, label %12, label %19

12:                                               ; preds = %3
  %13 = load ptr, ptr %5, align 8, !tbaa !19
  %14 = icmp eq ptr %13, null
  br i1 %14, label %15, label %19

15:                                               ; preds = %12
  %16 = load ptr, ptr @stderr, align 8, !tbaa !31
  %17 = load ptr, ptr %6, align 8, !tbaa !29
  %18 = call i32 (ptr, ptr, ...) @fprintf(ptr noundef %16, ptr noundef @.str.10, ptr noundef %17) #5
  store i32 1, ptr %4, align 4
  store i32 1, ptr %9, align 4
  br label %47

19:                                               ; preds = %12, %3
  %20 = load i32, ptr %7, align 4, !tbaa !4
  %21 = icmp eq i32 %20, 1
  br i1 %21, label %22, label %34

22:                                               ; preds = %19
  %23 = load ptr, ptr %5, align 8, !tbaa !19
  store ptr %23, ptr %8, align 8, !tbaa !33
  %24 = load ptr, ptr %8, align 8, !tbaa !33
  %25 = load i32, ptr %24, align 4, !tbaa !4
  %26 = icmp slt i32 %25, 0
  br i1 %26, label %27, label %33

27:                                               ; preds = %22
  %28 = load ptr, ptr @stderr, align 8, !tbaa !31
  %29 = load ptr, ptr %6, align 8, !tbaa !29
  %30 = load ptr, ptr %8, align 8, !tbaa !33
  %31 = load i32, ptr %30, align 4, !tbaa !4
  %32 = call i32 (ptr, ptr, ...) @fprintf(ptr noundef %28, ptr noundef @.str.11, ptr noundef %29, i32 noundef %31) #5
  store i32 1, ptr %4, align 4
  store i32 1, ptr %9, align 4
  br label %47

33:                                               ; preds = %22
  br label %45

34:                                               ; preds = %19
  %35 = load i32, ptr %7, align 4, !tbaa !4
  %36 = icmp eq i32 %35, 2
  br i1 %36, label %37, label %44

37:                                               ; preds = %34
  %38 = load ptr, ptr %5, align 8, !tbaa !19
  %39 = icmp eq ptr %38, null
  br i1 %39, label %40, label %44

40:                                               ; preds = %37
  %41 = load ptr, ptr @stderr, align 8, !tbaa !31
  %42 = load ptr, ptr %6, align 8, !tbaa !29
  %43 = call i32 (ptr, ptr, ...) @fprintf(ptr noundef %41, ptr noundef @.str.12, ptr noundef %42) #5
  store i32 1, ptr %4, align 4
  store i32 1, ptr %9, align 4
  br label %47

44:                                               ; preds = %37, %34
  br label %45

45:                                               ; preds = %44, %33
  br label %46

46:                                               ; preds = %45
  store i32 0, ptr %4, align 4
  store i32 1, ptr %9, align 4
  br label %47

47:                                               ; preds = %46, %40, %27, %15
  call void @llvm.lifetime.end.p0(i64 8, ptr %8) #5
  %48 = load i32, ptr %4, align 4
  ret i32 %48
}

; Function Attrs: nounwind uwtable
define internal void @PrintFinalStats(ptr noundef %0, i32 noundef %1, double noundef %2) #0 {
  %4 = alloca ptr, align 8
  %5 = alloca i32, align 4
  %6 = alloca double, align 8
  %7 = alloca i64, align 8
  %8 = alloca i64, align 8
  %9 = alloca i64, align 8
  %10 = alloca i64, align 8
  %11 = alloca i64, align 8
  %12 = alloca i64, align 8
  %13 = alloca i64, align 8
  %14 = alloca i64, align 8
  %15 = alloca i64, align 8
  %16 = alloca i64, align 8
  %17 = alloca i64, align 8
  %18 = alloca i64, align 8
  %19 = alloca i32, align 4
  store ptr %0, ptr %4, align 8, !tbaa !19
  store i32 %1, ptr %5, align 4, !tbaa !4
  store double %2, ptr %6, align 8, !tbaa !8
  call void @llvm.lifetime.start.p0(i64 8, ptr %7) #5
  call void @llvm.lifetime.start.p0(i64 8, ptr %8) #5
  call void @llvm.lifetime.start.p0(i64 8, ptr %9) #5
  call void @llvm.lifetime.start.p0(i64 8, ptr %10) #5
  call void @llvm.lifetime.start.p0(i64 8, ptr %11) #5
  call void @llvm.lifetime.start.p0(i64 8, ptr %12) #5
  call void @llvm.lifetime.start.p0(i64 8, ptr %13) #5
  call void @llvm.lifetime.start.p0(i64 8, ptr %14) #5
  call void @llvm.lifetime.start.p0(i64 8, ptr %15) #5
  call void @llvm.lifetime.start.p0(i64 8, ptr %16) #5
  call void @llvm.lifetime.start.p0(i64 8, ptr %17) #5
  call void @llvm.lifetime.start.p0(i64 8, ptr %18) #5
  call void @llvm.lifetime.start.p0(i64 4, ptr %19) #5
  %20 = load ptr, ptr %4, align 8, !tbaa !19
  %21 = call i32 @CVodeGetWorkSpace(ptr noundef %20, ptr noundef %7, ptr noundef %8)
  store i32 %21, ptr %19, align 4, !tbaa !4
  %22 = call i32 @check_retval(ptr noundef %19, ptr noundef @.str.44, i32 noundef 1)
  %23 = load ptr, ptr %4, align 8, !tbaa !19
  %24 = call i32 @CVodeGetNumSteps(ptr noundef %23, ptr noundef %11)
  store i32 %24, ptr %19, align 4, !tbaa !4
  %25 = call i32 @check_retval(ptr noundef %19, ptr noundef @.str.45, i32 noundef 1)
  %26 = load ptr, ptr %4, align 8, !tbaa !19
  %27 = call i32 @CVodeGetNumRhsEvals(ptr noundef %26, ptr noundef %12)
  store i32 %27, ptr %19, align 4, !tbaa !4
  %28 = call i32 @check_retval(ptr noundef %19, ptr noundef @.str.46, i32 noundef 1)
  %29 = load ptr, ptr %4, align 8, !tbaa !19
  %30 = call i32 @CVodeGetNumLinSolvSetups(ptr noundef %29, ptr noundef %13)
  store i32 %30, ptr %19, align 4, !tbaa !4
  %31 = call i32 @check_retval(ptr noundef %19, ptr noundef @.str.47, i32 noundef 1)
  %32 = load ptr, ptr %4, align 8, !tbaa !19
  %33 = call i32 @CVodeGetNumErrTestFails(ptr noundef %32, ptr noundef %16)
  store i32 %33, ptr %19, align 4, !tbaa !4
  %34 = call i32 @check_retval(ptr noundef %19, ptr noundef @.str.48, i32 noundef 1)
  %35 = load ptr, ptr %4, align 8, !tbaa !19
  %36 = call i32 @CVodeGetNumNonlinSolvIters(ptr noundef %35, ptr noundef %14)
  store i32 %36, ptr %19, align 4, !tbaa !4
  %37 = call i32 @check_retval(ptr noundef %19, ptr noundef @.str.49, i32 noundef 1)
  %38 = load ptr, ptr %4, align 8, !tbaa !19
  %39 = call i32 @CVodeGetNumNonlinSolvConvFails(ptr noundef %38, ptr noundef %15)
  store i32 %39, ptr %19, align 4, !tbaa !4
  %40 = call i32 @check_retval(ptr noundef %19, ptr noundef @.str.50, i32 noundef 1)
  %41 = call i32 (ptr, ...) @printf(ptr noundef @.str.51)
  %42 = load i64, ptr %7, align 8, !tbaa !37
  %43 = call i32 (ptr, ...) @printf(ptr noundef @.str.52, i64 noundef %42)
  %44 = load i64, ptr %8, align 8, !tbaa !37
  %45 = call i32 (ptr, ...) @printf(ptr noundef @.str.53, i64 noundef %44)
  %46 = load i64, ptr %11, align 8, !tbaa !37
  %47 = call i32 (ptr, ...) @printf(ptr noundef @.str.54, i64 noundef %46)
  %48 = load i64, ptr %12, align 8, !tbaa !37
  %49 = call i32 (ptr, ...) @printf(ptr noundef @.str.55, i64 noundef %48)
  %50 = load i64, ptr %13, align 8, !tbaa !37
  %51 = call i32 (ptr, ...) @printf(ptr noundef @.str.56, i64 noundef %50)
  %52 = load i64, ptr %14, align 8, !tbaa !37
  %53 = call i32 (ptr, ...) @printf(ptr noundef @.str.57, i64 noundef %52)
  %54 = load i64, ptr %15, align 8, !tbaa !37
  %55 = call i32 (ptr, ...) @printf(ptr noundef @.str.58, i64 noundef %54)
  %56 = load i64, ptr %16, align 8, !tbaa !37
  %57 = call i32 (ptr, ...) @printf(ptr noundef @.str.59, i64 noundef %56)
  %58 = load i32, ptr %5, align 4, !tbaa !4
  %59 = icmp ne i32 %58, 0
  br i1 %59, label %60, label %90

60:                                               ; preds = %3
  %61 = load i32, ptr %5, align 4, !tbaa !4
  %62 = icmp ne i32 %61, 3
  br i1 %62, label %63, label %73

63:                                               ; preds = %60
  %64 = load ptr, ptr %4, align 8, !tbaa !19
  %65 = call i32 @CVodeGetNumJacEvals(ptr noundef %64, ptr noundef %17)
  store i32 %65, ptr %19, align 4, !tbaa !4
  %66 = call i32 @check_retval(ptr noundef %19, ptr noundef @.str.60, i32 noundef 1)
  %67 = load ptr, ptr %4, align 8, !tbaa !19
  %68 = call i32 @CVodeGetNumLinRhsEvals(ptr noundef %67, ptr noundef %18)
  store i32 %68, ptr %19, align 4, !tbaa !4
  %69 = call i32 @check_retval(ptr noundef %19, ptr noundef @.str.61, i32 noundef 1)
  %70 = load ptr, ptr %4, align 8, !tbaa !19
  %71 = call i32 @CVodeGetLinWorkSpace(ptr noundef %70, ptr noundef %9, ptr noundef %10)
  store i32 %71, ptr %19, align 4, !tbaa !4
  %72 = call i32 @check_retval(ptr noundef %19, ptr noundef @.str.62, i32 noundef 1)
  br label %81

73:                                               ; preds = %60
  %74 = load i64, ptr %13, align 8, !tbaa !37
  store i64 %74, ptr %17, align 8, !tbaa !37
  %75 = load ptr, ptr %4, align 8, !tbaa !19
  %76 = call i32 @CVDiagGetNumRhsEvals(ptr noundef %75, ptr noundef %18)
  store i32 %76, ptr %19, align 4, !tbaa !4
  %77 = call i32 @check_retval(ptr noundef %19, ptr noundef @.str.63, i32 noundef 1)
  %78 = load ptr, ptr %4, align 8, !tbaa !19
  %79 = call i32 @CVDiagGetWorkSpace(ptr noundef %78, ptr noundef %9, ptr noundef %10)
  store i32 %79, ptr %19, align 4, !tbaa !4
  %80 = call i32 @check_retval(ptr noundef %19, ptr noundef @.str.64, i32 noundef 1)
  br label %81

81:                                               ; preds = %73, %63
  %82 = load i64, ptr %9, align 8, !tbaa !37
  %83 = call i32 (ptr, ...) @printf(ptr noundef @.str.65, i64 noundef %82)
  %84 = load i64, ptr %10, align 8, !tbaa !37
  %85 = call i32 (ptr, ...) @printf(ptr noundef @.str.66, i64 noundef %84)
  %86 = load i64, ptr %17, align 8, !tbaa !37
  %87 = call i32 (ptr, ...) @printf(ptr noundef @.str.67, i64 noundef %86)
  %88 = load i64, ptr %18, align 8, !tbaa !37
  %89 = call i32 (ptr, ...) @printf(ptr noundef @.str.68, i64 noundef %88)
  br label %90

90:                                               ; preds = %81, %3
  %91 = load double, ptr %6, align 8, !tbaa !8
  %92 = call i32 (ptr, ...) @printf(ptr noundef @.str.69, double noundef %91)
  call void @llvm.lifetime.end.p0(i64 4, ptr %19) #5
  call void @llvm.lifetime.end.p0(i64 8, ptr %18) #5
  call void @llvm.lifetime.end.p0(i64 8, ptr %17) #5
  call void @llvm.lifetime.end.p0(i64 8, ptr %16) #5
  call void @llvm.lifetime.end.p0(i64 8, ptr %15) #5
  call void @llvm.lifetime.end.p0(i64 8, ptr %14) #5
  call void @llvm.lifetime.end.p0(i64 8, ptr %13) #5
  call void @llvm.lifetime.end.p0(i64 8, ptr %12) #5
  call void @llvm.lifetime.end.p0(i64 8, ptr %11) #5
  call void @llvm.lifetime.end.p0(i64 8, ptr %10) #5
  call void @llvm.lifetime.end.p0(i64 8, ptr %9) #5
  call void @llvm.lifetime.end.p0(i64 8, ptr %8) #5
  call void @llvm.lifetime.end.p0(i64 8, ptr %7) #5
  ret void
}